; Function Attrs: mustprogress uwtable
define void @_ZN7openvdb5v11_011compression4Page4copyERKSt10unique_ptrIA_cSt14default_deleteIS4_EEi(ptr nocapture noundef nonnull align 8 dereferenceable(17) %this, ptr nocapture noundef nonnull readonly align 8 dereferenceable(8) %temp, i32 noundef %pageSize) local_unnamed_addr #4 align 2 {
entry:
  %mData = getelementptr inbounds i8, ptr %this, i64 8
  %conv = sext i32 %pageSize to i64
  %call = tail call noalias noundef nonnull ptr @_Znam(i64 noundef %conv) #19
  %0 = load ptr, ptr %mData, align 8
  store ptr %call, ptr %mData, align 8
  %tobool.not.i.i = icmp eq ptr %0, null
  br i1 %tobool.not.i.i, label %_ZNSt10unique_ptrIA_cSt14default_deleteIS0_EE5resetIPcvEEvT_.exit, label %_ZNKSt14default_deleteIA_cEclIcEENSt9enable_ifIXsr14is_convertibleIPA_T_PS0_EE5valueEvE4typeEPS4_.exit.i.i

_ZNKSt14default_deleteIA_cEclIcEENSt9enable_ifIXsr14is_convertibleIPA_T_PS0_EE5valueEvE4typeEPS4_.exit.i.i: ; preds = %entry
  tail call void @_ZdaPv(ptr noundef nonnull %0) #20
  %.pre = load ptr, ptr %mData, align 8
  br label %_ZNSt10unique_ptrIA_cSt14default_deleteIS0_EE5resetIPcvEEvT_.exit

_ZNSt10unique_ptrIA_cSt14default_deleteIS0_EE5resetIPcvEEvT_.exit: ; preds = %entry, %_ZNKSt14default_deleteIA_cEclIcEENSt9enable_ifIXsr14is_convertibleIPA_T_PS0_EE5valueEvE4typeEPS4_.exit.i.i
  %1 = phi ptr [ %call, %entry ], [ %.pre, %_ZNKSt14default_deleteIA_cEclIcEENSt9enable_ifIXsr14is_convertibleIPA_T_PS0_EE5valueEvE4typeEPS4_.exit.i.i ]
  %2 = load ptr, ptr %temp, align 8
  tail call void @llvm.memcpy.p0.p0.i64(ptr align 1 %1, ptr align 1 %2, i64 %conv, i1 false)
  ret void
}